target datalayout = "e-m:e-p270:32:32-p271:32:32-p272:64:64-i64:64-i128:128-f80:128-n8:16:32:64-S128"
target triple = "x86_64-pc-linux-gnu"

%"class.cm::static_string_view" = type { %"class.std::basic_string_view" }
%"class.std::basic_string_view" = type { i64, ptr }
%"class.std::optional.13" = type { %"struct.std::_Optional_base.14" }
%"struct.std::_Optional_base.14" = type { %"struct.std::_Optional_payload.16" }
%"struct.std::_Optional_payload.16" = type { %"struct.std::_Optional_payload_base.base.18", [3 x i8] }
%"struct.std::_Optional_payload_base.base.18" = type <{ %"union.std::_Optional_payload_base<CxxModuleMapFormat>::_Storage", i8 }>
%"union.std::_Optional_payload_base<CxxModuleMapFormat>::_Storage" = type { i32 }
%"struct.std::_Optional_payload_base.17" = type <{ %"union.std::_Optional_payload_base<CxxModuleMapFormat>::_Storage", i8, [3 x i8] }>

@.str.5 = private unnamed_addr constant [5 x i8] c".pcm\00", align 1
@.str.6 = private unnamed_addr constant [5 x i8] c".gcm\00", align 1
@.str.7 = private unnamed_addr constant [5 x i8] c".ifc\00", align 1
@.str.8 = private unnamed_addr constant [5 x i8] c".bmi\00", align 1

; Function Attrs: mustprogress nounwind uwtable
define linkonce_odr dso_local noundef nonnull align 4 dereferenceable(4) ptr @_ZNSt22_Optional_payload_baseI18CxxModuleMapFormatE6_M_getEv(ptr noundef nonnull align 4 dereferenceable(5) %0) #4 comdat align 2 {
  %2 = alloca ptr, align 8
  store ptr %0, ptr %2, align 8, !tbaa !134
  %3 = load ptr, ptr %2, align 8
  %4 = getelementptr inbounds nuw %"struct.std::_Optional_payload_base.17", ptr %3, i32 0, i32 0
  ret ptr %4
}

; Function Attrs: mustprogress nounwind uwtable
define linkonce_odr dso_local void @_ZN2cm18static_string_viewC2ESt17basic_string_viewIcSt11char_traitsIcEE(ptr noundef nonnull align 8 dereferenceable(16) %0, i64 %1, ptr %2) unnamed_addr #4 comdat align 2 {
  %4 = alloca %"class.std::basic_string_view", align 8
  %5 = alloca ptr, align 8
  %6 = getelementptr inbounds nuw { i64, ptr }, ptr %4, i32 0, i32 0
  store i64 %1, ptr %6, align 8
  %7 = getelementptr inbounds nuw { i64, ptr }, ptr %4, i32 0, i32 1
  store ptr %2, ptr %7, align 8
  store ptr %0, ptr %5, align 8, !tbaa !46
  %8 = load ptr, ptr %5, align 8
  call void @llvm.memcpy.p0.p0.i64(ptr align 8 %8, ptr align 8 %4, i64 16, i1 false), !tbaa.struct !48
  ret void
}

; Function Attrs: mustprogress nounwind uwtable
define linkonce_odr dso_local void @_ZNSt17basic_string_viewIcSt11char_traitsIcEEC2EPKcm(ptr noundef nonnull align 8 dereferenceable(16) %0, ptr noundef %1, i64 noundef %2) unnamed_addr #4 comdat align 2 {
  %4 = alloca ptr, align 8
  %5 = alloca ptr, align 8
  %6 = alloca i64, align 8
  store ptr %0, ptr %4, align 8, !tbaa !136
  store ptr %1, ptr %5, align 8, !tbaa !45
  store i64 %2, ptr %6, align 8, !tbaa !49
  %7 = load ptr, ptr %4, align 8
  %8 = getelementptr inbounds nuw %"class.std::basic_string_view", ptr %7, i32 0, i32 0
  %9 = load i64, ptr %6, align 8, !tbaa !49
  store i64 %9, ptr %8, align 8, !tbaa !138
  %10 = getelementptr inbounds nuw %"class.std::basic_string_view", ptr %7, i32 0, i32 1
  %11 = load ptr, ptr %5, align 8, !tbaa !45
  store ptr %11, ptr %10, align 8, !tbaa !140
  ret void
}

; Function Attrs: mustprogress nounwind uwtable
define linkonce_odr dso_local noundef nonnull align 4 dereferenceable(4) ptr @_ZNSt19_Optional_base_implI18CxxModuleMapFormatSt14_Optional_baseIS0_Lb1ELb1EEE6_M_getEv(ptr noundef nonnull align 1 dereferenceable(1) %0) #4 comdat align 2 {
  %2 = alloca ptr, align 8
  store ptr %0, ptr %2, align 8, !tbaa !130
  %3 = load ptr, ptr %2, align 8
  br label %4

4:                                                ; preds = %1
  br label %5

5:                                                ; preds = %4
  br label %6

6:                                                ; preds = %5
  %7 = getelementptr inbounds nuw %"struct.std::_Optional_base.14", ptr %3, i32 0, i32 0
  %8 = call noundef nonnull align 4 dereferenceable(4) ptr @_ZNSt22_Optional_payload_baseI18CxxModuleMapFormatE6_M_getEv(ptr noundef nonnull align 4 dereferenceable(5) %7) #3
  ret ptr %8
}

; Function Attrs: mustprogress nounwind uwtable
define linkonce_odr dso_local noundef zeroext i1 @_ZNKSt19_Optional_base_implI18CxxModuleMapFormatSt14_Optional_baseIS0_Lb1ELb1EEE13_M_is_engagedEv(ptr noundef nonnull align 1 dereferenceable(1) %0) #4 comdat align 2 {
  %2 = alloca ptr, align 8
  store ptr %0, ptr %2, align 8, !tbaa !130
  %3 = load ptr, ptr %2, align 8
  %4 = getelementptr inbounds nuw %"struct.std::_Optional_base.14", ptr %3, i32 0, i32 0
  %5 = getelementptr inbounds nuw %"struct.std::_Optional_payload_base.17", ptr %4, i32 0, i32 1
  %6 = load i8, ptr %5, align 4, !tbaa !132, !range !106, !noundef !107
  %7 = trunc i8 %6 to i1
  ret i1 %7
}

; Function Attrs: inlinehint mustprogress uwtable
define linkonce_odr dso_local { i64, ptr } @_ZN2cmli2_sEPKcm(ptr noundef %0, i64 noundef %1) #8 comdat {
  %3 = alloca %"class.cm::static_string_view", align 8
  %4 = alloca ptr, align 8
  %5 = alloca i64, align 8
  %6 = alloca %"class.std::basic_string_view", align 8
  store ptr %0, ptr %4, align 8, !tbaa !45
  store i64 %1, ptr %5, align 8, !tbaa !49
  %7 = load ptr, ptr %4, align 8, !tbaa !45
  %8 = load i64, ptr %5, align 8, !tbaa !49
  call void @_ZNSt17basic_string_viewIcSt11char_traitsIcEEC2EPKcm(ptr noundef nonnull align 8 dereferenceable(16) %6, ptr noundef %7, i64 noundef %8) #3
  %9 = getelementptr inbounds nuw { i64, ptr }, ptr %6, i32 0, i32 0
  %10 = load i64, ptr %9, align 8
  %11 = getelementptr inbounds nuw { i64, ptr }, ptr %6, i32 0, i32 1
  %12 = load ptr, ptr %11, align 8
  call void @_ZN2cm18static_string_viewC2ESt17basic_string_viewIcSt11char_traitsIcEE(ptr noundef nonnull align 8 dereferenceable(16) %3, i64 %10, ptr %12)
  %13 = getelementptr inbounds nuw %"class.cm::static_string_view", ptr %3, i32 0, i32 0
  %14 = load { i64, ptr }, ptr %13, align 8
  ret { i64, ptr } %14
}

; Function Attrs: mustprogress nounwind uwtable
define linkonce_odr dso_local noundef nonnull align 4 dereferenceable(4) ptr @_ZNRSt8optionalI18CxxModuleMapFormatEdeEv(ptr noundef nonnull align 4 dereferenceable(8) %0) #4 comdat align 2 {
  %2 = alloca ptr, align 8
  store ptr %0, ptr %2, align 8, !tbaa !59
  %3 = load ptr, ptr %2, align 8
  %4 = call noundef nonnull align 4 dereferenceable(4) ptr @_ZNSt19_Optional_base_implI18CxxModuleMapFormatSt14_Optional_baseIS0_Lb1ELb1EEE6_M_getEv(ptr noundef nonnull align 1 dereferenceable(1) %3) #3
  ret ptr %4
}

; Function Attrs: mustprogress nounwind uwtable
define linkonce_odr dso_local noundef zeroext i1 @_ZNKSt8optionalI18CxxModuleMapFormatEcvbEv(ptr noundef nonnull align 4 dereferenceable(8) %0) #4 comdat align 2 {
  %2 = alloca ptr, align 8
  store ptr %0, ptr %2, align 8, !tbaa !59
  %3 = load ptr, ptr %2, align 8
  %4 = call noundef zeroext i1 @_ZNKSt19_Optional_base_implI18CxxModuleMapFormatSt14_Optional_baseIS0_Lb1ELb1EEE13_M_is_engagedEv(ptr noundef nonnull align 1 dereferenceable(1) %3) #3
  ret i1 %4
}

; Function Attrs: mustprogress uwtable
define dso_local { i64, ptr } @_Z21CxxModuleMapExtensionSt8optionalI18CxxModuleMapFormatE(i64 %0) #5 {
  %2 = alloca %"class.cm::static_string_view", align 8
  %3 = alloca %"class.std::optional.13", align 4
  %4 = getelementptr inbounds nuw %"class.std::optional.13", ptr %3, i32 0, i32 0
  %5 = getelementptr inbounds nuw %"struct.std::_Optional_base.14", ptr %4, i32 0, i32 0
  store i64 %0, ptr %5, align 4
  %6 = call noundef zeroext i1 @_ZNKSt8optionalI18CxxModuleMapFormatEcvbEv(ptr noundef nonnull align 4 dereferenceable(8) %3) #3
  br i1 %6, label %7, label %32

7:                                                ; preds = %1
  %8 = call noundef nonnull align 4 dereferenceable(4) ptr @_ZNRSt8optionalI18CxxModuleMapFormatEdeEv(ptr noundef nonnull align 4 dereferenceable(8) %3) #3
  %9 = load i32, ptr %8, align 4, !tbaa !57
  switch i32 %9, label %31 [
    i32 0, label %10
    i32 1, label %17
    i32 2, label %24
  ]

10:                                               ; preds = %7
  %11 = call { i64, ptr } @_ZN2cmli2_sEPKcm(ptr noundef @.str.5, i64 noundef 4)
  %12 = getelementptr inbounds nuw %"class.cm::static_string_view", ptr %2, i32 0, i32 0
  %13 = getelementptr inbounds nuw { i64, ptr }, ptr %12, i32 0, i32 0
  %14 = extractvalue { i64, ptr } %11, 0
  store i64 %14, ptr %13, align 8
  %15 = getelementptr inbounds nuw { i64, ptr }, ptr %12, i32 0, i32 1
  %16 = extractvalue { i64, ptr } %11, 1
  store ptr %16, ptr %15, align 8
  br label %39

17:                                               ; preds = %7
  %18 = call { i64, ptr } @_ZN2cmli2_sEPKcm(ptr noundef @.str.6, i64 noundef 4)
  %19 = getelementptr inbounds nuw %"class.cm::static_string_view", ptr %2, i32 0, i32 0
  %20 = getelementptr inbounds nuw { i64, ptr }, ptr %19, i32 0, i32 0
  %21 = extractvalue { i64, ptr } %18, 0
  store i64 %21, ptr %20, align 8
  %22 = getelementptr inbounds nuw { i64, ptr }, ptr %19, i32 0, i32 1
  %23 = extractvalue { i64, ptr } %18, 1
  store ptr %23, ptr %22, align 8
  br label %39

24:                                               ; preds = %7
  %25 = call { i64, ptr } @_ZN2cmli2_sEPKcm(ptr noundef @.str.7, i64 noundef 4)
  %26 = getelementptr inbounds nuw %"class.cm::static_string_view", ptr %2, i32 0, i32 0
  %27 = getelementptr inbounds nuw { i64, ptr }, ptr %26, i32 0, i32 0
  %28 = extractvalue { i64, ptr } %25, 0
  store i64 %28, ptr %27, align 8
  %29 = getelementptr inbounds nuw { i64, ptr }, ptr %26, i32 0, i32 1
  %30 = extractvalue { i64, ptr } %25, 1
  store ptr %30, ptr %29, align 8
  br label %39

31:                                               ; preds = %7
  br label %32

32:                                               ; preds = %31, %1
  %33 = call { i64, ptr } @_ZN2cmli2_sEPKcm(ptr noundef @.str.8, i64 noundef 4)
  %34 = getelementptr inbounds nuw %"class.cm::static_string_view", ptr %2, i32 0, i32 0
  %35 = getelementptr inbounds nuw { i64, ptr }, ptr %34, i32 0, i32 0
  %36 = extractvalue { i64, ptr } %33, 0
  store i64 %36, ptr %35, align 8
  %37 = getelementptr inbounds nuw { i64, ptr }, ptr %34, i32 0, i32 1
  %38 = extractvalue { i64, ptr } %33, 1
  store ptr %38, ptr %37, align 8
  br label %39

39:                                               ; preds = %32, %24, %17, %10
  %40 = getelementptr inbounds nuw %"class.cm::static_string_view", ptr %2, i32 0, i32 0
  %41 = load { i64, ptr }, ptr %40, align 8
  ret { i64, ptr } %41
}