; Function Attrs: mustprogress nofree norecurse nosync nounwind willreturn memory(none) uwtable
define dso_local { i64, ptr } @_Z21CxxModuleMapExtensionSt8optionalI18CxxModuleMapFormatE(i64 %0) local_unnamed_addr #12 {
  %2 = and i64 %0, 4294967296
  %.not = icmp eq i64 %2, 0
  br i1 %.not, label %6, label %3

3:                                                ; preds = %1
  %.sroa.0.0.extract.trunc = trunc i64 %0 to i32
  switch i32 %.sroa.0.0.extract.trunc, label %6 [
    i32 0, label %7
    i32 1, label %4
    i32 2, label %5
  ]

4:                                                ; preds = %3
  br label %7

5:                                                ; preds = %3
  br label %7

6:                                                ; preds = %3, %1
  br label %7

7:                                                ; preds = %3, %6, %5, %4
  %.pn = phi { i64, ptr } [ { i64 4, ptr @.str.8 }, %6 ], [ { i64 4, ptr @.str.7 }, %5 ], [ { i64 4, ptr @.str.6 }, %4 ], [ { i64 4, ptr @.str.5 }, %3 ]
  ret { i64, ptr } %.pn
}